target datalayout = "e-m:e-p270:32:32-p271:32:32-p272:64:64-i64:64-i128:128-f80:128-n8:16:32:64-S128"
target triple = "x86_64-pc-linux-gnu"

%struct.H5C_class_t = type { i32, ptr, i32, i32, ptr, ptr, ptr, ptr, ptr, ptr, ptr, ptr, ptr, ptr }
%struct.H5B2_leaf_t = type { %struct.H5C_cache_entry_t, ptr, ptr, i16, ptr, ptr, i64 }
%struct.H5C_cache_entry_t = type { ptr, i64, i64, ptr, i8, ptr, i8, i8, i8, i8, i32, i8, i8, i8, i8, i8, i32, ptr, i32, i32, i32, i32, i32, i8, i8, ptr, ptr, ptr, ptr, ptr, ptr, i8, i32, i8, i64, ptr, i64, i64, i32, i8, i32, i32, i8, ptr, ptr, ptr }
%struct.H5B2_hdr_t = type { %struct.H5C_cache_entry_t, %struct.H5B2_node_ptr_t, i8, i8, i32, i32, i16, i8, ptr, i64, i64, i64, i64, i8, i8, i8, ptr, ptr, ptr, ptr, ptr, ptr, ptr, i8, ptr, ptr, i64, ptr, ptr }
%struct.H5B2_node_ptr_t = type { i64, i16, i64 }

@.str.1 = private unnamed_addr constant [102 x i8] c"generated/home/dtcxzyw/WorkSpace/Projects/compilers/llvm-opt-benchmark/bench/hdf5/hdf5/src/H5B2leaf.c\00", align 1
@H5E_BTREE_g = external global i64, align 8
@H5AC_BT2_LEAF = external constant [1 x %struct.H5C_class_t], align 16
@H5E_CANTALLOC_g = external global i64, align 8
@__func__.H5B2__shadow_leaf = private unnamed_addr constant [18 x i8] c"H5B2__shadow_leaf\00", align 1
@.str.32 = private unnamed_addr constant [50 x i8] c"unable to allocate file space to move B-tree node\00", align 1
@H5E_CANTMOVE_g = external global i64, align 8
@.str.33 = private unnamed_addr constant [27 x i8] c"unable to move B-tree node\00", align 1

; Function Attrs: nounwind uwtable
define internal i32 @H5B2__shadow_leaf(ptr noundef %0, ptr noundef %1) #0 {
  %3 = alloca ptr, align 8
  %4 = alloca ptr, align 8
  %5 = alloca ptr, align 8
  %6 = alloca i32, align 4
  %7 = alloca i8, align 1
  %8 = alloca i64, align 8
  store ptr %0, ptr %3, align 8
  store ptr %1, ptr %4, align 8
  store i32 0, ptr %6, align 4
  store i8 0, ptr %7, align 1
  %9 = load ptr, ptr %3, align 8
  %10 = getelementptr inbounds %struct.H5B2_leaf_t, ptr %9, i32 0, i32 1
  %11 = load ptr, ptr %10, align 8
  store ptr %11, ptr %5, align 8
  %12 = load ptr, ptr %3, align 8
  %13 = getelementptr inbounds %struct.H5B2_leaf_t, ptr %12, i32 0, i32 6
  %14 = load i64, ptr %13, align 8
  %15 = load ptr, ptr %5, align 8
  %16 = getelementptr inbounds %struct.H5B2_hdr_t, ptr %15, i32 0, i32 26
  %17 = load i64, ptr %16, align 8
  %18 = icmp ule i64 %14, %17
  br i1 %18, label %19, label %79

19:                                               ; preds = %2
  %20 = load ptr, ptr %5, align 8
  %21 = getelementptr inbounds %struct.H5B2_hdr_t, ptr %20, i32 0, i32 8
  %22 = load ptr, ptr %21, align 8
  %23 = load ptr, ptr %5, align 8
  %24 = getelementptr inbounds %struct.H5B2_hdr_t, ptr %23, i32 0, i32 4
  %25 = load i32, ptr %24, align 4
  %26 = zext i32 %25 to i64
  %27 = call i64 @H5MF_alloc(ptr noundef %22, i32 noundef 2, i64 noundef %26)
  store i64 %27, ptr %8, align 8
  %28 = icmp eq i64 -1, %27
  br i1 %28, label %29, label %44

29:                                               ; preds = %19
  br label %30

30:                                               ; preds = %29
  br label %31

31:                                               ; preds = %30
  br label %32

32:                                               ; preds = %31
  %33 = load i64, ptr @H5E_BTREE_g, align 8
  %34 = load i64, ptr @H5E_CANTALLOC_g, align 8
  %35 = call i32 (ptr, ptr, i32, i64, i64, ptr, ...) @H5E_printf_stack(ptr noundef @.str.1, ptr noundef @__func__.H5B2__shadow_leaf, i32 noundef 709, i64 noundef %33, i64 noundef %34, ptr noundef @.str.32)
  br label %36

36:                                               ; preds = %32
  store i8 1, ptr %7, align 1
  %37 = load i8, ptr %7, align 1
  %38 = trunc i8 %37 to i1
  %39 = zext i1 %38 to i8
  store i8 %39, ptr %7, align 1
  br label %40

40:                                               ; preds = %36
  br label %41

41:                                               ; preds = %40
  store i32 -1, ptr %6, align 4
  br label %80

42:                                               ; No predecessors!
  br label %43

43:                                               ; preds = %42
  br label %44

44:                                               ; preds = %43, %19
  %45 = load ptr, ptr %5, align 8
  %46 = getelementptr inbounds %struct.H5B2_hdr_t, ptr %45, i32 0, i32 8
  %47 = load ptr, ptr %46, align 8
  %48 = load ptr, ptr %4, align 8
  %49 = getelementptr inbounds %struct.H5B2_node_ptr_t, ptr %48, i32 0, i32 0
  %50 = load i64, ptr %49, align 8
  %51 = load i64, ptr %8, align 8
  %52 = call i32 @H5AC_move_entry(ptr noundef %47, ptr noundef @H5AC_BT2_LEAF, i64 noundef %50, i64 noundef %51)
  %53 = icmp slt i32 %52, 0
  br i1 %53, label %54, label %69

54:                                               ; preds = %44
  br label %55

55:                                               ; preds = %54
  br label %56

56:                                               ; preds = %55
  br label %57

57:                                               ; preds = %56
  %58 = load i64, ptr @H5E_BTREE_g, align 8
  %59 = load i64, ptr @H5E_CANTMOVE_g, align 8
  %60 = call i32 (ptr, ptr, i32, i64, i64, ptr, ...) @H5E_printf_stack(ptr noundef @.str.1, ptr noundef @__func__.H5B2__shadow_leaf, i32 noundef 713, i64 noundef %58, i64 noundef %59, ptr noundef @.str.33)
  br label %61

61:                                               ; preds = %57
  store i8 1, ptr %7, align 1
  %62 = load i8, ptr %7, align 1
  %63 = trunc i8 %62 to i1
  %64 = zext i1 %63 to i8
  store i8 %64, ptr %7, align 1
  br label %65

65:                                               ; preds = %61
  br label %66

66:                                               ; preds = %65
  store i32 -1, ptr %6, align 4
  br label %80

67:                                               ; No predecessors!
  br label %68

68:                                               ; preds = %67
  br label %69

69:                                               ; preds = %68, %44
  %70 = load i64, ptr %8, align 8
  %71 = load ptr, ptr %4, align 8
  %72 = getelementptr inbounds %struct.H5B2_node_ptr_t, ptr %71, i32 0, i32 0
  store i64 %70, ptr %72, align 8
  %73 = load ptr, ptr %5, align 8
  %74 = getelementptr inbounds %struct.H5B2_hdr_t, ptr %73, i32 0, i32 26
  %75 = load i64, ptr %74, align 8
  %76 = add i64 %75, 1
  %77 = load ptr, ptr %3, align 8
  %78 = getelementptr inbounds %struct.H5B2_leaf_t, ptr %77, i32 0, i32 6
  store i64 %76, ptr %78, align 8
  br label %79

79:                                               ; preds = %69, %2
  br label %80

80:                                               ; preds = %79, %66, %41
  %81 = load i32, ptr %6, align 4
  ret i32 %81
}