; Function Attrs: nounwind uwtable
define internal fastcc range(i32 -1, 1) i32 @H5B2__shadow_leaf(ptr noundef nonnull captures(none) %0, ptr noundef captures(none) %1) unnamed_addr #0 {
  %3 = getelementptr inbounds nuw i8, ptr %0, i64 248
  %4 = load ptr, ptr %3, align 8
  %5 = getelementptr inbounds nuw i8, ptr %0, i64 288
  %6 = load i64, ptr %5, align 8
  %7 = getelementptr inbounds nuw i8, ptr %4, i64 416
  %8 = load i64, ptr %7, align 8
  %.not = icmp ugt i64 %6, %8
  br i1 %.not, label %33, label %9

9:                                                ; preds = %2
  %10 = getelementptr inbounds nuw i8, ptr %4, i64 288
  %11 = load ptr, ptr %10, align 8
  %12 = getelementptr inbounds nuw i8, ptr %4, i64 276
  %13 = load i32, ptr %12, align 4
  %14 = zext i32 %13 to i64
  %15 = tail call i64 @H5MF_alloc(ptr noundef %11, i32 noundef 2, i64 noundef %14) #5
  %16 = icmp eq i64 %15, -1
  br i1 %16, label %17, label %21

17:                                               ; preds = %9
  %18 = load i64, ptr @H5E_BTREE_g, align 8
  %19 = load i64, ptr @H5E_CANTALLOC_g, align 8
  %20 = tail call i32 (ptr, ptr, i32, i64, i64, ptr, ...) @H5E_printf_stack(ptr noundef nonnull @.str.1, ptr noundef nonnull @__func__.H5B2__shadow_leaf, i32 noundef 709, i64 noundef %18, i64 noundef %19, ptr noundef nonnull @.str.32) #5
  br label %33

21:                                               ; preds = %9
  %22 = load ptr, ptr %10, align 8
  %23 = load i64, ptr %1, align 8
  %24 = tail call i32 @H5AC_move_entry(ptr noundef %22, ptr noundef nonnull @H5AC_BT2_LEAF, i64 noundef %23, i64 noundef %15) #5
  %25 = icmp slt i32 %24, 0
  br i1 %25, label %26, label %30

26:                                               ; preds = %21
  %27 = load i64, ptr @H5E_BTREE_g, align 8
  %28 = load i64, ptr @H5E_CANTMOVE_g, align 8
  %29 = tail call i32 (ptr, ptr, i32, i64, i64, ptr, ...) @H5E_printf_stack(ptr noundef nonnull @.str.1, ptr noundef nonnull @__func__.H5B2__shadow_leaf, i32 noundef 713, i64 noundef %27, i64 noundef %28, ptr noundef nonnull @.str.33) #5
  br label %33

30:                                               ; preds = %21
  store i64 %15, ptr %1, align 8
  %31 = load i64, ptr %7, align 8
  %32 = add i64 %31, 1
  store i64 %32, ptr %5, align 8
  br label %33

33:                                               ; preds = %2, %30, %26, %17
  %.0 = phi i32 [ -1, %17 ], [ -1, %26 ], [ 0, %30 ], [ 0, %2 ]
  ret i32 %.0
}